; Function Attrs: nounwind uwtable
define dso_local void @detach_advice(ptr noundef %0) local_unnamed_addr #0 {
  %2 = load i32, ptr @git_gettext_enabled, align 4, !tbaa !14
  %.not4.i = icmp eq i32 %2, 0
  br i1 %.not4.i, label %_.exit, label %3

3:                                                ; preds = %1
  %4 = tail call ptr @dcgettext(ptr noundef null, ptr noundef nonnull @.str.29, i32 noundef 5) #12
  br label %_.exit

_.exit:                                           ; preds = %1, %3
  %.0.i = phi ptr [ %4, %3 ], [ @.str.29, %1 ]
  %5 = load ptr, ptr @stderr, align 8, !tbaa !12
  %6 = tail call i32 (ptr, ptr, ...) @fprintf(ptr noundef %5, ptr noundef %.0.i, ptr noundef %0) #14
  ret void
}